target datalayout = "e-m:e-p270:32:32-p271:32:32-p272:64:64-i64:64-i128:128-f80:128-n8:16:32:64-S128"
target triple = "x86_64-pc-linux-gnu"

%"class.std::__cxx11::basic_string" = type { %"struct.std::__cxx11::basic_string<char>::_Alloc_hider", i64, %union.anon }
%"struct.std::__cxx11::basic_string<char>::_Alloc_hider" = type { ptr }
%union.anon = type { i64, [8 x i8] }
%"class.std::allocator" = type { i8 }
%"class.std::basic_string_view" = type { i64, ptr }

@_ZN3nix9verbosityE = external global i32, align 4
@_ZN3nix6loggerE = external global ptr, align 8
@.str.50 = private unnamed_addr constant [33 x i8] c"would remove profile version %1%\00", align 1
@.str.51 = private unnamed_addr constant [29 x i8] c"removing profile version %1%\00", align 1

; Function Attrs: mustprogress nounwind uwtable
define linkonce_odr noundef ptr @_ZNKSt7__cxx1112basic_stringIcSt11char_traitsIcESaIcEE7_M_dataEv(ptr noundef nonnull align 8 dereferenceable(32) %0) #2 comdat align 2 {
  %2 = alloca ptr, align 8
  store ptr %0, ptr %2, align 8
  %3 = load ptr, ptr %2, align 8
  %4 = getelementptr inbounds %"class.std::__cxx11::basic_string", ptr %3, i32 0, i32 0
  %5 = getelementptr inbounds %"struct.std::__cxx11::basic_string<char>::_Alloc_hider", ptr %4, i32 0, i32 0
  %6 = load ptr, ptr %5, align 8
  ret ptr %6
}

; Function Attrs: mustprogress nounwind uwtable
define linkonce_odr void @_ZNSt17basic_string_viewIcSt11char_traitsIcEEC2EPKcm(ptr noundef nonnull align 8 dereferenceable(16) %0, ptr noundef %1, i64 noundef %2) unnamed_addr #2 comdat align 2 {
  %4 = alloca ptr, align 8
  %5 = alloca ptr, align 8
  %6 = alloca i64, align 8
  store ptr %0, ptr %4, align 8
  store ptr %1, ptr %5, align 8
  store i64 %2, ptr %6, align 8
  %7 = load ptr, ptr %4, align 8
  %8 = getelementptr inbounds %"class.std::basic_string_view", ptr %7, i32 0, i32 0
  %9 = load i64, ptr %6, align 8
  store i64 %9, ptr %8, align 8
  %10 = getelementptr inbounds %"class.std::basic_string_view", ptr %7, i32 0, i32 1
  %11 = load ptr, ptr %5, align 8
  store ptr %11, ptr %10, align 8
  ret void
}

; Function Attrs: mustprogress nounwind uwtable
define linkonce_odr noundef i64 @_ZNKSt7__cxx1112basic_stringIcSt11char_traitsIcESaIcEE4sizeEv(ptr noundef nonnull align 8 dereferenceable(32) %0) #2 comdat align 2 {
  %2 = alloca ptr, align 8
  store ptr %0, ptr %2, align 8
  %3 = load ptr, ptr %2, align 8
  %4 = getelementptr inbounds %"class.std::__cxx11::basic_string", ptr %3, i32 0, i32 1
  %5 = load i64, ptr %4, align 8
  ret i64 %5
}

; Function Attrs: mustprogress nounwind uwtable
define linkonce_odr noundef ptr @_ZNKSt7__cxx1112basic_stringIcSt11char_traitsIcESaIcEE4dataEv(ptr noundef nonnull align 8 dereferenceable(32) %0) #2 comdat align 2 {
  %2 = alloca ptr, align 8
  store ptr %0, ptr %2, align 8
  %3 = load ptr, ptr %2, align 8
  %4 = call noundef ptr @_ZNKSt7__cxx1112basic_stringIcSt11char_traitsIcESaIcEE7_M_dataEv(ptr noundef nonnull align 8 dereferenceable(32) %3)
  ret ptr %4
}

; Function Attrs: mustprogress nounwind uwtable
define linkonce_odr { i64, ptr } @_ZNKSt7__cxx1112basic_stringIcSt11char_traitsIcESaIcEEcvSt17basic_string_viewIcS2_EEv(ptr noundef nonnull align 8 dereferenceable(32) %0) #2 comdat align 2 {
  %2 = alloca %"class.std::basic_string_view", align 8
  %3 = alloca ptr, align 8
  store ptr %0, ptr %3, align 8
  %4 = load ptr, ptr %3, align 8
  %5 = call noundef ptr @_ZNKSt7__cxx1112basic_stringIcSt11char_traitsIcESaIcEE4dataEv(ptr noundef nonnull align 8 dereferenceable(32) %4) #1
  %6 = call noundef i64 @_ZNKSt7__cxx1112basic_stringIcSt11char_traitsIcESaIcEE4sizeEv(ptr noundef nonnull align 8 dereferenceable(32) %4) #1
  call void @_ZNSt17basic_string_viewIcSt11char_traitsIcEEC2EPKcm(ptr noundef nonnull align 8 dereferenceable(16) %2, ptr noundef %5, i64 noundef %6) #1
  %7 = load { i64, ptr }, ptr %2, align 8
  ret { i64, ptr } %7
}

; Function Attrs: mustprogress uwtable
define internal void @_ZN3nixL17deleteGeneration2ERKNSt7__cxx1112basic_stringIcSt11char_traitsIcESaIcEEEmb(ptr noundef nonnull align 8 dereferenceable(32) %0, i64 noundef %1, i1 noundef zeroext %2) #5 personality ptr @__gxx_personality_v0 {
  %4 = alloca ptr, align 8
  %5 = alloca i64, align 8
  %6 = alloca i8, align 1
  %7 = alloca i32, align 4
  %8 = alloca %"class.std::basic_string_view", align 8
  %9 = alloca %"class.std::__cxx11::basic_string", align 8
  %10 = alloca %"class.std::__cxx11::basic_string", align 8
  %11 = alloca %"class.std::allocator", align 1
  %12 = alloca ptr, align 8
  %13 = alloca i32, align 4
  %14 = alloca i32, align 4
  %15 = alloca %"class.std::basic_string_view", align 8
  %16 = alloca %"class.std::__cxx11::basic_string", align 8
  %17 = alloca %"class.std::__cxx11::basic_string", align 8
  %18 = alloca %"class.std::allocator", align 1
  store ptr %0, ptr %4, align 8
  store i64 %1, ptr %5, align 8
  %19 = zext i1 %2 to i8
  store i8 %19, ptr %6, align 1
  %20 = load i8, ptr %6, align 1
  %21 = trunc i8 %20 to i1
  br i1 %21, label %22, label %61

22:                                               ; preds = %3
  br label %23

23:                                               ; preds = %22
  store i32 2, ptr %7, align 4
  %24 = load i32, ptr %7, align 4
  %25 = load i32, ptr @_ZN3nix9verbosityE, align 4
  %26 = icmp sle i32 %24, %25
  br i1 %26, label %27, label %59

27:                                               ; preds = %23
  %28 = load ptr, ptr @_ZN3nix6loggerE, align 8
  %29 = load i32, ptr %7, align 4
  call void @_ZNSaIcEC1Ev(ptr noundef nonnull align 1 dereferenceable(1) %11) #1
  invoke void @_ZNSt7__cxx1112basic_stringIcSt11char_traitsIcESaIcEEC2IS3_EEPKcRKS3_(ptr noundef nonnull align 8 dereferenceable(32) %10, ptr noundef @.str.50, ptr noundef nonnull align 1 dereferenceable(1) %11)
          to label %30 unwind label %45

30:                                               ; preds = %27
  invoke void @_ZN3nix3fmtIJmEEENSt7__cxx1112basic_stringIcSt11char_traitsIcESaIcEEERKS6_DpRKT_(ptr dead_on_unwind writable sret(%"class.std::__cxx11::basic_string") align 8 %9, ptr noundef nonnull align 8 dereferenceable(32) %10, ptr noundef nonnull align 8 dereferenceable(8) %5)
          to label %31 unwind label %49

31:                                               ; preds = %30
  %32 = call { i64, ptr } @_ZNKSt7__cxx1112basic_stringIcSt11char_traitsIcESaIcEEcvSt17basic_string_viewIcS2_EEv(ptr noundef nonnull align 8 dereferenceable(32) %9) #1
  %33 = getelementptr inbounds { i64, ptr }, ptr %8, i32 0, i32 0
  %34 = extractvalue { i64, ptr } %32, 0
  store i64 %34, ptr %33, align 8
  %35 = getelementptr inbounds { i64, ptr }, ptr %8, i32 0, i32 1
  %36 = extractvalue { i64, ptr } %32, 1
  store ptr %36, ptr %35, align 8
  %37 = getelementptr inbounds { i64, ptr }, ptr %8, i32 0, i32 0
  %38 = load i64, ptr %37, align 8
  %39 = getelementptr inbounds { i64, ptr }, ptr %8, i32 0, i32 1
  %40 = load ptr, ptr %39, align 8
  %41 = load ptr, ptr %28, align 8
  %42 = getelementptr inbounds ptr, ptr %41, i64 6
  %43 = load ptr, ptr %42, align 8
  invoke void %43(ptr noundef nonnull align 8 dereferenceable(8) %28, i32 noundef %29, i64 %38, ptr %40)
          to label %44 unwind label %53

44:                                               ; preds = %31
  call void @_ZNSt7__cxx1112basic_stringIcSt11char_traitsIcESaIcEED2Ev(ptr noundef nonnull align 8 dereferenceable(32) %9) #1
  call void @_ZNSt7__cxx1112basic_stringIcSt11char_traitsIcESaIcEED2Ev(ptr noundef nonnull align 8 dereferenceable(32) %10) #1
  call void @_ZNSaIcED1Ev(ptr noundef nonnull align 1 dereferenceable(1) %11) #1
  br label %59

45:                                               ; preds = %27
  %46 = landingpad { ptr, i32 }
          cleanup
  %47 = extractvalue { ptr, i32 } %46, 0
  store ptr %47, ptr %12, align 8
  %48 = extractvalue { ptr, i32 } %46, 1
  store i32 %48, ptr %13, align 4
  br label %58

49:                                               ; preds = %30
  %50 = landingpad { ptr, i32 }
          cleanup
  %51 = extractvalue { ptr, i32 } %50, 0
  store ptr %51, ptr %12, align 8
  %52 = extractvalue { ptr, i32 } %50, 1
  store i32 %52, ptr %13, align 4
  br label %57

53:                                               ; preds = %31
  %54 = landingpad { ptr, i32 }
          cleanup
  %55 = extractvalue { ptr, i32 } %54, 0
  store ptr %55, ptr %12, align 8
  %56 = extractvalue { ptr, i32 } %54, 1
  store i32 %56, ptr %13, align 4
  call void @_ZNSt7__cxx1112basic_stringIcSt11char_traitsIcESaIcEED2Ev(ptr noundef nonnull align 8 dereferenceable(32) %9) #1
  br label %57

57:                                               ; preds = %53, %49
  call void @_ZNSt7__cxx1112basic_stringIcSt11char_traitsIcESaIcEED2Ev(ptr noundef nonnull align 8 dereferenceable(32) %10) #1
  br label %58

58:                                               ; preds = %57, %45
  call void @_ZNSaIcED1Ev(ptr noundef nonnull align 1 dereferenceable(1) %11) #1
  br label %103

59:                                               ; preds = %44, %23
  br label %60

60:                                               ; preds = %59
  br label %102

61:                                               ; preds = %3
  br label %62

62:                                               ; preds = %61
  store i32 2, ptr %14, align 4
  %63 = load i32, ptr %14, align 4
  %64 = load i32, ptr @_ZN3nix9verbosityE, align 4
  %65 = icmp sle i32 %63, %64
  br i1 %65, label %66, label %98

66:                                               ; preds = %62
  %67 = load ptr, ptr @_ZN3nix6loggerE, align 8
  %68 = load i32, ptr %14, align 4
  call void @_ZNSaIcEC1Ev(ptr noundef nonnull align 1 dereferenceable(1) %18) #1
  invoke void @_ZNSt7__cxx1112basic_stringIcSt11char_traitsIcESaIcEEC2IS3_EEPKcRKS3_(ptr noundef nonnull align 8 dereferenceable(32) %17, ptr noundef @.str.51, ptr noundef nonnull align 1 dereferenceable(1) %18)
          to label %69 unwind label %84

69:                                               ; preds = %66
  invoke void @_ZN3nix3fmtIJmEEENSt7__cxx1112basic_stringIcSt11char_traitsIcESaIcEEERKS6_DpRKT_(ptr dead_on_unwind writable sret(%"class.std::__cxx11::basic_string") align 8 %16, ptr noundef nonnull align 8 dereferenceable(32) %17, ptr noundef nonnull align 8 dereferenceable(8) %5)
          to label %70 unwind label %88

70:                                               ; preds = %69
  %71 = call { i64, ptr } @_ZNKSt7__cxx1112basic_stringIcSt11char_traitsIcESaIcEEcvSt17basic_string_viewIcS2_EEv(ptr noundef nonnull align 8 dereferenceable(32) %16) #1
  %72 = getelementptr inbounds { i64, ptr }, ptr %15, i32 0, i32 0
  %73 = extractvalue { i64, ptr } %71, 0
  store i64 %73, ptr %72, align 8
  %74 = getelementptr inbounds { i64, ptr }, ptr %15, i32 0, i32 1
  %75 = extractvalue { i64, ptr } %71, 1
  store ptr %75, ptr %74, align 8
  %76 = getelementptr inbounds { i64, ptr }, ptr %15, i32 0, i32 0
  %77 = load i64, ptr %76, align 8
  %78 = getelementptr inbounds { i64, ptr }, ptr %15, i32 0, i32 1
  %79 = load ptr, ptr %78, align 8
  %80 = load ptr, ptr %67, align 8
  %81 = getelementptr inbounds ptr, ptr %80, i64 6
  %82 = load ptr, ptr %81, align 8
  invoke void %82(ptr noundef nonnull align 8 dereferenceable(8) %67, i32 noundef %68, i64 %77, ptr %79)
          to label %83 unwind label %92

83:                                               ; preds = %70
  call void @_ZNSt7__cxx1112basic_stringIcSt11char_traitsIcESaIcEED2Ev(ptr noundef nonnull align 8 dereferenceable(32) %16) #1
  call void @_ZNSt7__cxx1112basic_stringIcSt11char_traitsIcESaIcEED2Ev(ptr noundef nonnull align 8 dereferenceable(32) %17) #1
  call void @_ZNSaIcED1Ev(ptr noundef nonnull align 1 dereferenceable(1) %18) #1
  br label %98

84:                                               ; preds = %66
  %85 = landingpad { ptr, i32 }
          cleanup
  %86 = extractvalue { ptr, i32 } %85, 0
  store ptr %86, ptr %12, align 8
  %87 = extractvalue { ptr, i32 } %85, 1
  store i32 %87, ptr %13, align 4
  br label %97

88:                                               ; preds = %69
  %89 = landingpad { ptr, i32 }
          cleanup
  %90 = extractvalue { ptr, i32 } %89, 0
  store ptr %90, ptr %12, align 8
  %91 = extractvalue { ptr, i32 } %89, 1
  store i32 %91, ptr %13, align 4
  br label %96

92:                                               ; preds = %70
  %93 = landingpad { ptr, i32 }
          cleanup
  %94 = extractvalue { ptr, i32 } %93, 0
  store ptr %94, ptr %12, align 8
  %95 = extractvalue { ptr, i32 } %93, 1
  store i32 %95, ptr %13, align 4
  call void @_ZNSt7__cxx1112basic_stringIcSt11char_traitsIcESaIcEED2Ev(ptr noundef nonnull align 8 dereferenceable(32) %16) #1
  br label %96

96:                                               ; preds = %92, %88
  call void @_ZNSt7__cxx1112basic_stringIcSt11char_traitsIcESaIcEED2Ev(ptr noundef nonnull align 8 dereferenceable(32) %17) #1
  br label %97

97:                                               ; preds = %96, %84
  call void @_ZNSaIcED1Ev(ptr noundef nonnull align 1 dereferenceable(1) %18) #1
  br label %103

98:                                               ; preds = %83, %62
  br label %99

99:                                               ; preds = %98
  %100 = load ptr, ptr %4, align 8
  %101 = load i64, ptr %5, align 8
  call void @_ZN3nix16deleteGenerationERKNSt7__cxx1112basic_stringIcSt11char_traitsIcESaIcEEEm(ptr noundef nonnull align 8 dereferenceable(32) %100, i64 noundef %101)
  br label %102

102:                                              ; preds = %99, %60
  ret void

103:                                              ; preds = %97, %58
  %104 = load ptr, ptr %12, align 8
  %105 = load i32, ptr %13, align 4
  %106 = insertvalue { ptr, i32 } poison, ptr %104, 0
  %107 = insertvalue { ptr, i32 } %106, i32 %105, 1
  resume { ptr, i32 } %107
}