; Function Attrs: mustprogress uwtable
define internal fastcc void @_ZN3nixL17deleteGeneration2ERKNSt7__cxx1112basic_stringIcSt11char_traitsIcESaIcEEEmb(ptr noundef nonnull align 8 dereferenceable(32) %0, i64 noundef %1, i1 noundef zeroext %2) unnamed_addr #5 personality ptr @__gxx_personality_v0 {
  %4 = alloca i64, align 8
  %5 = alloca %"class.std::__cxx11::basic_string", align 8
  %6 = alloca %"class.std::__cxx11::basic_string", align 8
  %7 = alloca %"class.std::allocator", align 1
  %8 = alloca %"class.std::__cxx11::basic_string", align 8
  %9 = alloca %"class.std::__cxx11::basic_string", align 8
  %10 = alloca %"class.std::allocator", align 1
  store i64 %1, ptr %4, align 8
  %11 = load i32, ptr @_ZN3nix9verbosityE, align 4
  %12 = icmp sgt i32 %11, 1
  br i1 %2, label %13, label %43

13:                                               ; preds = %3
  br i1 %12, label %14, label %75

14:                                               ; preds = %13
  %15 = load ptr, ptr @_ZN3nix6loggerE, align 8
  call void @_ZNSaIcEC1Ev(ptr noundef nonnull align 1 dereferenceable(1) %7) #25
  invoke void @_ZNSt7__cxx1112basic_stringIcSt11char_traitsIcESaIcEEC2IS3_EEPKcRKS3_(ptr noundef nonnull align 8 dereferenceable(32) %6, ptr noundef nonnull @.str.50, ptr noundef nonnull align 1 dereferenceable(1) %7)
          to label %16 unwind label %36

16:                                               ; preds = %14
  invoke void @_ZN3nix3fmtIJmEEENSt7__cxx1112basic_stringIcSt11char_traitsIcESaIcEEERKS6_DpRKT_(ptr dead_on_unwind nonnull writable sret(%"class.std::__cxx11::basic_string") align 8 %5, ptr noundef nonnull align 8 dereferenceable(32) %6, ptr noundef nonnull align 8 dereferenceable(8) %4)
          to label %17 unwind label %38

17:                                               ; preds = %16
  %18 = load ptr, ptr %5, align 8
  %19 = getelementptr inbounds i8, ptr %5, i64 8
  %20 = load i64, ptr %19, align 8
  %21 = load ptr, ptr %15, align 8
  %22 = getelementptr inbounds i8, ptr %21, i64 48
  %23 = load ptr, ptr %22, align 8
  invoke void %23(ptr noundef nonnull align 8 dereferenceable(8) %15, i32 noundef 2, i64 %20, ptr %18)
          to label %24 unwind label %40

24:                                               ; preds = %17
  %25 = load ptr, ptr %5, align 8
  %26 = getelementptr inbounds i8, ptr %5, i64 16
  %27 = icmp eq ptr %25, %26
  br i1 %27, label %_ZNKSt7__cxx1112basic_stringIcSt11char_traitsIcESaIcEE11_M_is_localEv.exit.thread.i.i, label %_ZNKSt7__cxx1112basic_stringIcSt11char_traitsIcESaIcEE11_M_is_localEv.exit.i.i

_ZNKSt7__cxx1112basic_stringIcSt11char_traitsIcESaIcEE11_M_is_localEv.exit.thread.i.i: ; preds = %24
  %28 = load i64, ptr %19, align 8
  %29 = icmp ult i64 %28, 16
  call void @llvm.assume(i1 %29)
  br label %_ZNSt7__cxx1112basic_stringIcSt11char_traitsIcESaIcEED2Ev.exit

_ZNKSt7__cxx1112basic_stringIcSt11char_traitsIcESaIcEE11_M_is_localEv.exit.i.i: ; preds = %24
  call void @_ZdlPv(ptr noundef %25) #28
  br label %_ZNSt7__cxx1112basic_stringIcSt11char_traitsIcESaIcEED2Ev.exit

_ZNSt7__cxx1112basic_stringIcSt11char_traitsIcESaIcEED2Ev.exit: ; preds = %_ZNKSt7__cxx1112basic_stringIcSt11char_traitsIcESaIcEE11_M_is_localEv.exit.thread.i.i, %_ZNKSt7__cxx1112basic_stringIcSt11char_traitsIcESaIcEE11_M_is_localEv.exit.i.i
  call void @_ZNSaIcED2Ev(ptr noundef nonnull align 1 dereferenceable(1) %5) #25
  %30 = load ptr, ptr %6, align 8
  %31 = getelementptr inbounds i8, ptr %6, i64 16
  %32 = icmp eq ptr %30, %31
  br i1 %32, label %_ZNKSt7__cxx1112basic_stringIcSt11char_traitsIcESaIcEE11_M_is_localEv.exit.thread.i.i21, label %_ZNKSt7__cxx1112basic_stringIcSt11char_traitsIcESaIcEE11_M_is_localEv.exit.i.i20

_ZNKSt7__cxx1112basic_stringIcSt11char_traitsIcESaIcEE11_M_is_localEv.exit.thread.i.i21: ; preds = %_ZNSt7__cxx1112basic_stringIcSt11char_traitsIcESaIcEED2Ev.exit
  %33 = getelementptr inbounds i8, ptr %6, i64 8
  %34 = load i64, ptr %33, align 8
  %35 = icmp ult i64 %34, 16
  call void @llvm.assume(i1 %35)
  br label %_ZNSt7__cxx1112basic_stringIcSt11char_traitsIcESaIcEED2Ev.exit22

_ZNKSt7__cxx1112basic_stringIcSt11char_traitsIcESaIcEE11_M_is_localEv.exit.i.i20: ; preds = %_ZNSt7__cxx1112basic_stringIcSt11char_traitsIcESaIcEED2Ev.exit
  call void @_ZdlPv(ptr noundef %30) #28
  br label %_ZNSt7__cxx1112basic_stringIcSt11char_traitsIcESaIcEED2Ev.exit22

_ZNSt7__cxx1112basic_stringIcSt11char_traitsIcESaIcEED2Ev.exit22: ; preds = %_ZNKSt7__cxx1112basic_stringIcSt11char_traitsIcESaIcEE11_M_is_localEv.exit.thread.i.i21, %_ZNKSt7__cxx1112basic_stringIcSt11char_traitsIcESaIcEE11_M_is_localEv.exit.i.i20
  call void @_ZNSaIcED2Ev(ptr noundef nonnull align 1 dereferenceable(1) %6) #25
  call void @_ZNSaIcED1Ev(ptr noundef nonnull align 1 dereferenceable(1) %7) #25
  br label %75

36:                                               ; preds = %14
  %37 = landingpad { ptr, i32 }
          cleanup
  br label %76

38:                                               ; preds = %16
  %39 = landingpad { ptr, i32 }
          cleanup
  br label %42

40:                                               ; preds = %17
  %41 = landingpad { ptr, i32 }
          cleanup
  call void @_ZNSt7__cxx1112basic_stringIcSt11char_traitsIcESaIcEED2Ev(ptr noundef nonnull align 8 dereferenceable(32) %5) #25
  br label %42

42:                                               ; preds = %40, %38
  %.pn16 = phi { ptr, i32 } [ %41, %40 ], [ %39, %38 ]
  call void @_ZNSt7__cxx1112basic_stringIcSt11char_traitsIcESaIcEED2Ev(ptr noundef nonnull align 8 dereferenceable(32) %6) #25
  br label %76

43:                                               ; preds = %3
  br i1 %12, label %44, label %73

44:                                               ; preds = %43
  %45 = load ptr, ptr @_ZN3nix6loggerE, align 8
  call void @_ZNSaIcEC1Ev(ptr noundef nonnull align 1 dereferenceable(1) %10) #25
  invoke void @_ZNSt7__cxx1112basic_stringIcSt11char_traitsIcESaIcEEC2IS3_EEPKcRKS3_(ptr noundef nonnull align 8 dereferenceable(32) %9, ptr noundef nonnull @.str.51, ptr noundef nonnull align 1 dereferenceable(1) %10)
          to label %46 unwind label %66

46:                                               ; preds = %44
  invoke void @_ZN3nix3fmtIJmEEENSt7__cxx1112basic_stringIcSt11char_traitsIcESaIcEEERKS6_DpRKT_(ptr dead_on_unwind nonnull writable sret(%"class.std::__cxx11::basic_string") align 8 %8, ptr noundef nonnull align 8 dereferenceable(32) %9, ptr noundef nonnull align 8 dereferenceable(8) %4)
          to label %47 unwind label %68

47:                                               ; preds = %46
  %48 = load ptr, ptr %8, align 8
  %49 = getelementptr inbounds i8, ptr %8, i64 8
  %50 = load i64, ptr %49, align 8
  %51 = load ptr, ptr %45, align 8
  %52 = getelementptr inbounds i8, ptr %51, i64 48
  %53 = load ptr, ptr %52, align 8
  invoke void %53(ptr noundef nonnull align 8 dereferenceable(8) %45, i32 noundef 2, i64 %50, ptr %48)
          to label %54 unwind label %70

54:                                               ; preds = %47
  %55 = load ptr, ptr %8, align 8
  %56 = getelementptr inbounds i8, ptr %8, i64 16
  %57 = icmp eq ptr %55, %56
  br i1 %57, label %_ZNKSt7__cxx1112basic_stringIcSt11char_traitsIcESaIcEE11_M_is_localEv.exit.thread.i.i26, label %_ZNKSt7__cxx1112basic_stringIcSt11char_traitsIcESaIcEE11_M_is_localEv.exit.i.i25

_ZNKSt7__cxx1112basic_stringIcSt11char_traitsIcESaIcEE11_M_is_localEv.exit.thread.i.i26: ; preds = %54
  %58 = load i64, ptr %49, align 8
  %59 = icmp ult i64 %58, 16
  call void @llvm.assume(i1 %59)
  br label %_ZNSt7__cxx1112basic_stringIcSt11char_traitsIcESaIcEED2Ev.exit27

_ZNKSt7__cxx1112basic_stringIcSt11char_traitsIcESaIcEE11_M_is_localEv.exit.i.i25: ; preds = %54
  call void @_ZdlPv(ptr noundef %55) #28
  br label %_ZNSt7__cxx1112basic_stringIcSt11char_traitsIcESaIcEED2Ev.exit27

_ZNSt7__cxx1112basic_stringIcSt11char_traitsIcESaIcEED2Ev.exit27: ; preds = %_ZNKSt7__cxx1112basic_stringIcSt11char_traitsIcESaIcEE11_M_is_localEv.exit.thread.i.i26, %_ZNKSt7__cxx1112basic_stringIcSt11char_traitsIcESaIcEE11_M_is_localEv.exit.i.i25
  call void @_ZNSaIcED2Ev(ptr noundef nonnull align 1 dereferenceable(1) %8) #25
  %60 = load ptr, ptr %9, align 8
  %61 = getelementptr inbounds i8, ptr %9, i64 16
  %62 = icmp eq ptr %60, %61
  br i1 %62, label %_ZNKSt7__cxx1112basic_stringIcSt11char_traitsIcESaIcEE11_M_is_localEv.exit.thread.i.i29, label %_ZNKSt7__cxx1112basic_stringIcSt11char_traitsIcESaIcEE11_M_is_localEv.exit.i.i28

_ZNKSt7__cxx1112basic_stringIcSt11char_traitsIcESaIcEE11_M_is_localEv.exit.thread.i.i29: ; preds = %_ZNSt7__cxx1112basic_stringIcSt11char_traitsIcESaIcEED2Ev.exit27
  %63 = getelementptr inbounds i8, ptr %9, i64 8
  %64 = load i64, ptr %63, align 8
  %65 = icmp ult i64 %64, 16
  call void @llvm.assume(i1 %65)
  br label %_ZNSt7__cxx1112basic_stringIcSt11char_traitsIcESaIcEED2Ev.exit30

_ZNKSt7__cxx1112basic_stringIcSt11char_traitsIcESaIcEE11_M_is_localEv.exit.i.i28: ; preds = %_ZNSt7__cxx1112basic_stringIcSt11char_traitsIcESaIcEED2Ev.exit27
  call void @_ZdlPv(ptr noundef %60) #28
  br label %_ZNSt7__cxx1112basic_stringIcSt11char_traitsIcESaIcEED2Ev.exit30

_ZNSt7__cxx1112basic_stringIcSt11char_traitsIcESaIcEED2Ev.exit30: ; preds = %_ZNKSt7__cxx1112basic_stringIcSt11char_traitsIcESaIcEE11_M_is_localEv.exit.thread.i.i29, %_ZNKSt7__cxx1112basic_stringIcSt11char_traitsIcESaIcEE11_M_is_localEv.exit.i.i28
  call void @_ZNSaIcED2Ev(ptr noundef nonnull align 1 dereferenceable(1) %9) #25
  call void @_ZNSaIcED1Ev(ptr noundef nonnull align 1 dereferenceable(1) %10) #25
  %.pre = load i64, ptr %4, align 8
  br label %73

66:                                               ; preds = %44
  %67 = landingpad { ptr, i32 }
          cleanup
  br label %76

68:                                               ; preds = %46
  %69 = landingpad { ptr, i32 }
          cleanup
  br label %72

70:                                               ; preds = %47
  %71 = landingpad { ptr, i32 }
          cleanup
  call void @_ZNSt7__cxx1112basic_stringIcSt11char_traitsIcESaIcEED2Ev(ptr noundef nonnull align 8 dereferenceable(32) %8) #25
  br label %72

72:                                               ; preds = %70, %68
  %.pn = phi { ptr, i32 } [ %71, %70 ], [ %69, %68 ]
  call void @_ZNSt7__cxx1112basic_stringIcSt11char_traitsIcESaIcEED2Ev(ptr noundef nonnull align 8 dereferenceable(32) %9) #25
  br label %76

73:                                               ; preds = %43, %_ZNSt7__cxx1112basic_stringIcSt11char_traitsIcESaIcEED2Ev.exit30
  %74 = phi i64 [ %1, %43 ], [ %.pre, %_ZNSt7__cxx1112basic_stringIcSt11char_traitsIcESaIcEED2Ev.exit30 ]
  call void @_ZN3nix16deleteGenerationERKNSt7__cxx1112basic_stringIcSt11char_traitsIcESaIcEEEm(ptr noundef nonnull align 8 dereferenceable(32) %0, i64 noundef %74)
  br label %75

75:                                               ; preds = %_ZNSt7__cxx1112basic_stringIcSt11char_traitsIcESaIcEED2Ev.exit22, %13, %73
  ret void

76:                                               ; preds = %66, %72, %36, %42
  %.sink = phi ptr [ %7, %42 ], [ %7, %36 ], [ %10, %72 ], [ %10, %66 ]
  %.pn16.pn.pn = phi { ptr, i32 } [ %.pn16, %42 ], [ %37, %36 ], [ %.pn, %72 ], [ %67, %66 ]
  call void @_ZNSaIcED1Ev(ptr noundef nonnull align 1 dereferenceable(1) %.sink) #25
  resume { ptr, i32 } %.pn16.pn.pn
}